target datalayout = "e-m:e-p270:32:32-p271:32:32-p272:64:64-i64:64-i128:128-f80:128-n8:16:32:64-S128"
target triple = "x86_64-pc-linux-gnu"

%struct.prov_aes_hmac_sha_ctx_st = type { %struct.prov_cipher_ctx_st, %struct.aes_key_st, i64, %union.anon.0, ptr, i32, i32, i64, i64, i64 }
%struct.prov_cipher_ctx_st = type { [16 x i8], [16 x i8], [16 x i8], ptr, %union.anon, i32, i64, i64, i64, i64, i32, i8, i32, ptr, i32, i64, i32, i64, i32, ptr, ptr, ptr }
%union.anon = type { ptr }
%struct.aes_key_st = type { [60 x i32], i32 }
%union.anon.0 = type { i32, [12 x i8] }
%struct.prov_aes_hmac_sha1_ctx_st = type { %struct.prov_aes_hmac_sha_ctx_st, %struct.SHAstate_st, %struct.SHAstate_st, %struct.SHAstate_st }
%struct.SHAstate_st = type { i32, i32, i32, i32, i32, i32, i32, [16 x i32], i32 }

; Function Attrs: nounwind uwtable
define internal void @sha1_update(ptr noundef %0, ptr noundef %1, i64 noundef %2) #0 {
  %4 = alloca ptr, align 8
  %5 = alloca ptr, align 8
  %6 = alloca i64, align 8
  %7 = alloca ptr, align 8
  %8 = alloca i64, align 8
  store ptr %0, ptr %4, align 8, !tbaa !62
  store ptr %1, ptr %5, align 8, !tbaa !36
  store i64 %2, ptr %6, align 8, !tbaa !12
  call void @llvm.lifetime.start.p0(i64 8, ptr %7) #7
  %9 = load ptr, ptr %5, align 8, !tbaa !36
  store ptr %9, ptr %7, align 8, !tbaa !10
  call void @llvm.lifetime.start.p0(i64 8, ptr %8) #7
  %10 = load ptr, ptr %4, align 8, !tbaa !62
  %11 = getelementptr inbounds nuw %struct.SHAstate_st, ptr %10, i32 0, i32 8
  %12 = load i32, ptr %11, align 4, !tbaa !64
  %13 = zext i32 %12 to i64
  store i64 %13, ptr %8, align 8, !tbaa !12
  %14 = icmp ne i64 %13, 0
  br i1 %14, label %15, label %34

15:                                               ; preds = %3
  %16 = load i64, ptr %8, align 8, !tbaa !12
  %17 = sub i64 64, %16
  store i64 %17, ptr %8, align 8, !tbaa !12
  %18 = load i64, ptr %6, align 8, !tbaa !12
  %19 = load i64, ptr %8, align 8, !tbaa !12
  %20 = icmp ult i64 %18, %19
  br i1 %20, label %21, label %23

21:                                               ; preds = %15
  %22 = load i64, ptr %6, align 8, !tbaa !12
  store i64 %22, ptr %8, align 8, !tbaa !12
  br label %23

23:                                               ; preds = %21, %15
  %24 = load ptr, ptr %4, align 8, !tbaa !62
  %25 = load ptr, ptr %7, align 8, !tbaa !10
  %26 = load i64, ptr %8, align 8, !tbaa !12
  %27 = call i32 @SHA1_Update(ptr noundef %24, ptr noundef %25, i64 noundef %26)
  %28 = load i64, ptr %8, align 8, !tbaa !12
  %29 = load ptr, ptr %7, align 8, !tbaa !10
  %30 = getelementptr inbounds nuw i8, ptr %29, i64 %28
  store ptr %30, ptr %7, align 8, !tbaa !10
  %31 = load i64, ptr %8, align 8, !tbaa !12
  %32 = load i64, ptr %6, align 8, !tbaa !12
  %33 = sub i64 %32, %31
  store i64 %33, ptr %6, align 8, !tbaa !12
  br label %34

34:                                               ; preds = %23, %3
  %35 = load i64, ptr %6, align 8, !tbaa !12
  %36 = urem i64 %35, 64
  store i64 %36, ptr %8, align 8, !tbaa !12
  %37 = load i64, ptr %8, align 8, !tbaa !12
  %38 = load i64, ptr %6, align 8, !tbaa !12
  %39 = sub i64 %38, %37
  store i64 %39, ptr %6, align 8, !tbaa !12
  %40 = load i64, ptr %6, align 8, !tbaa !12
  %41 = icmp ne i64 %40, 0
  br i1 %41, label %42, label %78

42:                                               ; preds = %34
  %43 = load ptr, ptr %4, align 8, !tbaa !62
  %44 = load ptr, ptr %7, align 8, !tbaa !10
  %45 = load i64, ptr %6, align 8, !tbaa !12
  %46 = udiv i64 %45, 64
  call void @sha1_block_data_order(ptr noundef %43, ptr noundef %44, i64 noundef %46)
  %47 = load i64, ptr %6, align 8, !tbaa !12
  %48 = load ptr, ptr %7, align 8, !tbaa !10
  %49 = getelementptr inbounds nuw i8, ptr %48, i64 %47
  store ptr %49, ptr %7, align 8, !tbaa !10
  %50 = load i64, ptr %6, align 8, !tbaa !12
  %51 = lshr i64 %50, 29
  %52 = load ptr, ptr %4, align 8, !tbaa !62
  %53 = getelementptr inbounds nuw %struct.SHAstate_st, ptr %52, i32 0, i32 6
  %54 = load i32, ptr %53, align 4, !tbaa !65
  %55 = zext i32 %54 to i64
  %56 = add i64 %55, %51
  %57 = trunc i64 %56 to i32
  store i32 %57, ptr %53, align 4, !tbaa !65
  %58 = load i64, ptr %6, align 8, !tbaa !12
  %59 = shl i64 %58, 3
  store i64 %59, ptr %6, align 8, !tbaa !12
  %60 = load ptr, ptr %4, align 8, !tbaa !62
  %61 = getelementptr inbounds nuw %struct.SHAstate_st, ptr %60, i32 0, i32 5
  %62 = load i32, ptr %61, align 4, !tbaa !66
  %63 = zext i32 %62 to i64
  %64 = add i64 %63, %59
  %65 = trunc i64 %64 to i32
  store i32 %65, ptr %61, align 4, !tbaa !66
  %66 = load ptr, ptr %4, align 8, !tbaa !62
  %67 = getelementptr inbounds nuw %struct.SHAstate_st, ptr %66, i32 0, i32 5
  %68 = load i32, ptr %67, align 4, !tbaa !66
  %69 = load i64, ptr %6, align 8, !tbaa !12
  %70 = trunc i64 %69 to i32
  %71 = icmp ult i32 %68, %70
  br i1 %71, label %72, label %77

72:                                               ; preds = %42
  %73 = load ptr, ptr %4, align 8, !tbaa !62
  %74 = getelementptr inbounds nuw %struct.SHAstate_st, ptr %73, i32 0, i32 6
  %75 = load i32, ptr %74, align 4, !tbaa !65
  %76 = add i32 %75, 1
  store i32 %76, ptr %74, align 4, !tbaa !65
  br label %77

77:                                               ; preds = %72, %42
  br label %78

78:                                               ; preds = %77, %34
  %79 = load i64, ptr %8, align 8, !tbaa !12
  %80 = icmp ne i64 %79, 0
  br i1 %80, label %81, label %86

81:                                               ; preds = %78
  %82 = load ptr, ptr %4, align 8, !tbaa !62
  %83 = load ptr, ptr %7, align 8, !tbaa !10
  %84 = load i64, ptr %8, align 8, !tbaa !12
  %85 = call i32 @SHA1_Update(ptr noundef %82, ptr noundef %83, i64 noundef %84)
  br label %86

86:                                               ; preds = %81, %78
  call void @llvm.lifetime.end.p0(i64 8, ptr %8) #7
  call void @llvm.lifetime.end.p0(i64 8, ptr %7) #7
  ret void
}

; Function Attrs: nounwind uwtable
define internal void @aesni_cbc_hmac_sha1_set_mac_key(ptr noundef %0, ptr noundef %1, i64 noundef %2) #0 {
  %4 = alloca ptr, align 8
  %5 = alloca ptr, align 8
  %6 = alloca i64, align 8
  %7 = alloca ptr, align 8
  %8 = alloca i32, align 4
  %9 = alloca [64 x i8], align 16
  store ptr %0, ptr %4, align 8, !tbaa !36
  store ptr %1, ptr %5, align 8, !tbaa !10
  store i64 %2, ptr %6, align 8, !tbaa !12
  call void @llvm.lifetime.start.p0(i64 8, ptr %7) #7
  %10 = load ptr, ptr %4, align 8, !tbaa !36
  store ptr %10, ptr %7, align 8, !tbaa !16
  call void @llvm.lifetime.start.p0(i64 4, ptr %8) #7
  call void @llvm.lifetime.start.p0(i64 64, ptr %9) #7
  %11 = getelementptr inbounds [64 x i8], ptr %9, i64 0, i64 0
  call void @llvm.memset.p0.i64(ptr align 16 %11, i8 0, i64 64, i1 false)
  %12 = load i64, ptr %6, align 8, !tbaa !12
  %13 = icmp ugt i64 %12, 64
  br i1 %13, label %14, label %26

14:                                               ; preds = %3
  %15 = load ptr, ptr %7, align 8, !tbaa !16
  %16 = getelementptr inbounds nuw %struct.prov_aes_hmac_sha1_ctx_st, ptr %15, i32 0, i32 1
  %17 = call i32 @SHA1_Init(ptr noundef %16)
  %18 = load ptr, ptr %7, align 8, !tbaa !16
  %19 = getelementptr inbounds nuw %struct.prov_aes_hmac_sha1_ctx_st, ptr %18, i32 0, i32 1
  %20 = load ptr, ptr %5, align 8, !tbaa !10
  %21 = load i64, ptr %6, align 8, !tbaa !12
  call void @sha1_update(ptr noundef %19, ptr noundef %20, i64 noundef %21)
  %22 = getelementptr inbounds [64 x i8], ptr %9, i64 0, i64 0
  %23 = load ptr, ptr %7, align 8, !tbaa !16
  %24 = getelementptr inbounds nuw %struct.prov_aes_hmac_sha1_ctx_st, ptr %23, i32 0, i32 1
  %25 = call i32 @SHA1_Final(ptr noundef %22, ptr noundef %24)
  br label %30

26:                                               ; preds = %3
  %27 = getelementptr inbounds [64 x i8], ptr %9, i64 0, i64 0
  %28 = load ptr, ptr %5, align 8, !tbaa !10
  %29 = load i64, ptr %6, align 8, !tbaa !12
  call void @llvm.memcpy.p0.p0.i64(ptr align 16 %27, ptr align 1 %28, i64 %29, i1 false)
  br label %30

30:                                               ; preds = %26, %14
  store i32 0, ptr %8, align 4, !tbaa !3
  br label %31

31:                                               ; preds = %43, %30
  %32 = load i32, ptr %8, align 4, !tbaa !3
  %33 = zext i32 %32 to i64
  %34 = icmp ult i64 %33, 64
  br i1 %34, label %35, label %46

35:                                               ; preds = %31
  %36 = load i32, ptr %8, align 4, !tbaa !3
  %37 = zext i32 %36 to i64
  %38 = getelementptr inbounds nuw [64 x i8], ptr %9, i64 0, i64 %37
  %39 = load i8, ptr %38, align 1, !tbaa !19
  %40 = zext i8 %39 to i32
  %41 = xor i32 %40, 54
  %42 = trunc i32 %41 to i8
  store i8 %42, ptr %38, align 1, !tbaa !19
  br label %43

43:                                               ; preds = %35
  %44 = load i32, ptr %8, align 4, !tbaa !3
  %45 = add i32 %44, 1
  store i32 %45, ptr %8, align 4, !tbaa !3
  br label %31, !llvm.loop !51

46:                                               ; preds = %31
  %47 = load ptr, ptr %7, align 8, !tbaa !16
  %48 = getelementptr inbounds nuw %struct.prov_aes_hmac_sha1_ctx_st, ptr %47, i32 0, i32 1
  %49 = call i32 @SHA1_Init(ptr noundef %48)
  %50 = load ptr, ptr %7, align 8, !tbaa !16
  %51 = getelementptr inbounds nuw %struct.prov_aes_hmac_sha1_ctx_st, ptr %50, i32 0, i32 1
  %52 = getelementptr inbounds [64 x i8], ptr %9, i64 0, i64 0
  call void @sha1_update(ptr noundef %51, ptr noundef %52, i64 noundef 64)
  store i32 0, ptr %8, align 4, !tbaa !3
  br label %53

53:                                               ; preds = %65, %46
  %54 = load i32, ptr %8, align 4, !tbaa !3
  %55 = zext i32 %54 to i64
  %56 = icmp ult i64 %55, 64
  br i1 %56, label %57, label %68

57:                                               ; preds = %53
  %58 = load i32, ptr %8, align 4, !tbaa !3
  %59 = zext i32 %58 to i64
  %60 = getelementptr inbounds nuw [64 x i8], ptr %9, i64 0, i64 %59
  %61 = load i8, ptr %60, align 1, !tbaa !19
  %62 = zext i8 %61 to i32
  %63 = xor i32 %62, 106
  %64 = trunc i32 %63 to i8
  store i8 %64, ptr %60, align 1, !tbaa !19
  br label %65

65:                                               ; preds = %57
  %66 = load i32, ptr %8, align 4, !tbaa !3
  %67 = add i32 %66, 1
  store i32 %67, ptr %8, align 4, !tbaa !3
  br label %53, !llvm.loop !52

68:                                               ; preds = %53
  %69 = load ptr, ptr %7, align 8, !tbaa !16
  %70 = getelementptr inbounds nuw %struct.prov_aes_hmac_sha1_ctx_st, ptr %69, i32 0, i32 2
  %71 = call i32 @SHA1_Init(ptr noundef %70)
  %72 = load ptr, ptr %7, align 8, !tbaa !16
  %73 = getelementptr inbounds nuw %struct.prov_aes_hmac_sha1_ctx_st, ptr %72, i32 0, i32 2
  %74 = getelementptr inbounds [64 x i8], ptr %9, i64 0, i64 0
  call void @sha1_update(ptr noundef %73, ptr noundef %74, i64 noundef 64)
  %75 = getelementptr inbounds [64 x i8], ptr %9, i64 0, i64 0
  call void @OPENSSL_cleanse(ptr noundef %75, i64 noundef 64)
  call void @llvm.lifetime.end.p0(i64 64, ptr %9) #7
  call void @llvm.lifetime.end.p0(i64 4, ptr %8) #7
  call void @llvm.lifetime.end.p0(i64 8, ptr %7) #7
  ret void
}